target datalayout = "e-m:e-p270:32:32-p271:32:32-p272:64:64-i64:64-i128:128-f80:128-n8:16:32:64-S128"
target triple = "x86_64-pc-linux-gnu"

%"class.llvm::SmallVectorBase" = type { ptr, i32, i32 }
%"class.llvm::sampleprof::SampleProfileReader" = type <{ ptr, %"class.llvm::sampleprof::SampleProfileMap", ptr, %"class.std::unique_ptr", %"class.std::unique_ptr.18", %"class.std::unique_ptr.26", %"class.std::unordered_map.34", %"struct.std::pair", i8, i8, i8, i8, i32, i8, [3 x i8], i32, ptr, i32, i8, i8, [2 x i8] }>
%"class.llvm::sampleprof::SampleProfileMap" = type { %"class.llvm::sampleprof::HashKeyMap" }
%"class.llvm::sampleprof::HashKeyMap" = type { %"class.std::unordered_map" }
%"class.std::unordered_map" = type { %"class.std::_Hashtable" }
%"class.std::_Hashtable" = type { ptr, i64, %"struct.std::__detail::_Hash_node_base", i64, %"struct.std::__detail::_Prime_rehash_policy", ptr }
%"struct.std::__detail::_Hash_node_base" = type { ptr }
%"struct.std::__detail::_Prime_rehash_policy" = type { float, i64 }
%"class.std::unique_ptr" = type { %"struct.std::__uniq_ptr_data" }
%"struct.std::__uniq_ptr_data" = type { %"class.std::__uniq_ptr_impl" }
%"class.std::__uniq_ptr_impl" = type { %"class.std::tuple" }
%"class.std::tuple" = type { %"struct.std::_Tuple_impl" }
%"struct.std::_Tuple_impl" = type { %"struct.std::_Head_base.17" }
%"struct.std::_Head_base.17" = type { ptr }
%"class.std::unique_ptr.18" = type { %"struct.std::__uniq_ptr_data.19" }
%"struct.std::__uniq_ptr_data.19" = type { %"class.std::__uniq_ptr_impl.20" }
%"class.std::__uniq_ptr_impl.20" = type { %"class.std::tuple.21" }
%"class.std::tuple.21" = type { %"struct.std::_Tuple_impl.22" }
%"struct.std::_Tuple_impl.22" = type { %"struct.std::_Head_base.25" }
%"struct.std::_Head_base.25" = type { ptr }
%"class.std::unique_ptr.26" = type { %"struct.std::__uniq_ptr_data.27" }
%"struct.std::__uniq_ptr_data.27" = type { %"class.std::__uniq_ptr_impl.28" }
%"class.std::__uniq_ptr_impl.28" = type { %"class.std::tuple.29" }
%"class.std::tuple.29" = type { %"struct.std::_Tuple_impl.30" }
%"struct.std::_Tuple_impl.30" = type { %"struct.std::_Head_base.33" }
%"struct.std::_Head_base.33" = type { ptr }
%"class.std::unordered_map.34" = type { %"class.std::_Hashtable.35" }
%"class.std::_Hashtable.35" = type { ptr, i64, %"struct.std::__detail::_Hash_node_base", i64, %"struct.std::__detail::_Prime_rehash_policy", ptr }
%"struct.std::pair" = type { ptr, ptr }
%"class.std::error_code" = type { i32, ptr }
%"class.llvm::sampleprof::SampleProfileReader.base" = type <{ ptr, %"class.llvm::sampleprof::SampleProfileMap", ptr, %"class.std::unique_ptr", %"class.std::unique_ptr.18", %"class.std::unique_ptr.26", %"class.std::unordered_map.34", %"struct.std::pair", i8, i8, i8, i8, i32, i8, [3 x i8], i32, ptr, i32, i8, i8 }>
%"class.llvm::sampleprof::SampleProfileReaderBinary" = type { %"class.llvm::sampleprof::SampleProfileReader.base", ptr, ptr, %"class.std::vector.84", %"class.std::vector.89", %"class.std::vector.94", ptr }
%"class.std::vector.84" = type { %"struct.std::_Vector_base.85" }
%"struct.std::_Vector_base.85" = type { %"struct.std::_Vector_base<llvm::sampleprof::FunctionId, std::allocator<llvm::sampleprof::FunctionId>>::_Vector_impl" }
%"struct.std::_Vector_base<llvm::sampleprof::FunctionId, std::allocator<llvm::sampleprof::FunctionId>>::_Vector_impl" = type { %"struct.std::_Vector_base<llvm::sampleprof::FunctionId, std::allocator<llvm::sampleprof::FunctionId>>::_Vector_impl_data" }
%"struct.std::_Vector_base<llvm::sampleprof::FunctionId, std::allocator<llvm::sampleprof::FunctionId>>::_Vector_impl_data" = type { ptr, ptr, ptr }
%"class.std::vector.89" = type { %"struct.std::_Vector_base.90" }
%"struct.std::_Vector_base.90" = type { %"struct.std::_Vector_base<llvm::SmallVector<llvm::sampleprof::SampleContextFrame, 1>, std::allocator<llvm::SmallVector<llvm::sampleprof::SampleContextFrame, 1>>>::_Vector_impl" }
%"struct.std::_Vector_base<llvm::SmallVector<llvm::sampleprof::SampleContextFrame, 1>, std::allocator<llvm::SmallVector<llvm::sampleprof::SampleContextFrame, 1>>>::_Vector_impl" = type { %"struct.std::_Vector_base<llvm::SmallVector<llvm::sampleprof::SampleContextFrame, 1>, std::allocator<llvm::SmallVector<llvm::sampleprof::SampleContextFrame, 1>>>::_Vector_impl_data" }
%"struct.std::_Vector_base<llvm::SmallVector<llvm::sampleprof::SampleContextFrame, 1>, std::allocator<llvm::SmallVector<llvm::sampleprof::SampleContextFrame, 1>>>::_Vector_impl_data" = type { ptr, ptr, ptr }
%"class.std::vector.94" = type { %"struct.std::_Vector_base.95" }
%"struct.std::_Vector_base.95" = type { %"struct.std::_Vector_base<unsigned long, std::allocator<unsigned long>>::_Vector_impl" }
%"struct.std::_Vector_base<unsigned long, std::allocator<unsigned long>>::_Vector_impl" = type { %"struct.std::_Vector_base<unsigned long, std::allocator<unsigned long>>::_Vector_impl_data" }
%"struct.std::_Vector_base<unsigned long, std::allocator<unsigned long>>::_Vector_impl_data" = type { ptr, ptr, ptr }
%"class.llvm::sampleprof::SampleProfileReaderExtBinaryBase" = type { %"class.llvm::sampleprof::SampleProfileReaderBinary", %"class.llvm::BumpPtrAllocatorImpl", %"class.std::vector.141", %"class.std::unique_ptr.146", %"class.llvm::DenseMap.154", %"class.std::vector.157", %"class.llvm::DenseSet" }
%"class.llvm::BumpPtrAllocatorImpl" = type { ptr, ptr, %"class.llvm::SmallVector.131", %"class.llvm::SmallVector.136", i64, i64 }
%"class.llvm::SmallVector.131" = type { %"class.llvm::SmallVectorImpl.132", %"struct.llvm::SmallVectorStorage.135" }
%"class.llvm::SmallVectorImpl.132" = type { %"class.llvm::SmallVectorTemplateBase.133" }
%"class.llvm::SmallVectorTemplateBase.133" = type { %"class.llvm::SmallVectorTemplateCommon.134" }
%"class.llvm::SmallVectorTemplateCommon.134" = type { %"class.llvm::SmallVectorBase" }
%"struct.llvm::SmallVectorStorage.135" = type { [32 x i8] }
%"class.llvm::SmallVector.136" = type { %"class.llvm::SmallVectorImpl.137" }
%"class.llvm::SmallVectorImpl.137" = type { %"class.llvm::SmallVectorTemplateBase.138" }
%"class.llvm::SmallVectorTemplateBase.138" = type { %"class.llvm::SmallVectorTemplateCommon.139" }
%"class.llvm::SmallVectorTemplateCommon.139" = type { %"class.llvm::SmallVectorBase" }
%"class.std::vector.141" = type { %"struct.std::_Vector_base.142" }
%"struct.std::_Vector_base.142" = type { %"struct.std::_Vector_base<llvm::sampleprof::SecHdrTableEntry, std::allocator<llvm::sampleprof::SecHdrTableEntry>>::_Vector_impl" }
%"struct.std::_Vector_base<llvm::sampleprof::SecHdrTableEntry, std::allocator<llvm::sampleprof::SecHdrTableEntry>>::_Vector_impl" = type { %"struct.std::_Vector_base<llvm::sampleprof::SecHdrTableEntry, std::allocator<llvm::sampleprof::SecHdrTableEntry>>::_Vector_impl_data" }
%"struct.std::_Vector_base<llvm::sampleprof::SecHdrTableEntry, std::allocator<llvm::sampleprof::SecHdrTableEntry>>::_Vector_impl_data" = type { ptr, ptr, ptr }
%"class.std::unique_ptr.146" = type { %"struct.std::__uniq_ptr_data.147" }
%"struct.std::__uniq_ptr_data.147" = type { %"class.std::__uniq_ptr_impl.148" }
%"class.std::__uniq_ptr_impl.148" = type { %"class.std::tuple.149" }
%"class.std::tuple.149" = type { %"struct.std::_Tuple_impl.150" }
%"struct.std::_Tuple_impl.150" = type { %"struct.std::_Head_base.153" }
%"struct.std::_Head_base.153" = type { ptr }
%"class.llvm::DenseMap.154" = type <{ ptr, i32, i32, i32, [4 x i8] }>
%"class.std::vector.157" = type { %"struct.std::_Vector_base.158" }
%"struct.std::_Vector_base.158" = type { %"struct.std::_Vector_base<std::pair<llvm::sampleprof::SampleContext, unsigned long>, std::allocator<std::pair<llvm::sampleprof::SampleContext, unsigned long>>>::_Vector_impl" }
%"struct.std::_Vector_base<std::pair<llvm::sampleprof::SampleContext, unsigned long>, std::allocator<std::pair<llvm::sampleprof::SampleContext, unsigned long>>>::_Vector_impl" = type { %"struct.std::_Vector_base<std::pair<llvm::sampleprof::SampleContext, unsigned long>, std::allocator<std::pair<llvm::sampleprof::SampleContext, unsigned long>>>::_Vector_impl_data" }
%"struct.std::_Vector_base<std::pair<llvm::sampleprof::SampleContext, unsigned long>, std::allocator<std::pair<llvm::sampleprof::SampleContext, unsigned long>>>::_Vector_impl_data" = type { ptr, ptr, ptr }
%"class.llvm::DenseSet" = type { %"class.llvm::detail::DenseSetImpl" }
%"class.llvm::detail::DenseSetImpl" = type { %"class.llvm::DenseMap.162" }
%"class.llvm::DenseMap.162" = type <{ ptr, i32, i32, i32, [4 x i8] }>

; Function Attrs: mustprogress nounwind uwtable
define linkonce_odr hidden void @_ZNSt10error_codeC2EiRKNSt3_V214error_categoryE(ptr noundef nonnull align 8 dereferenceable(16) %0, i32 noundef %1, ptr noundef nonnull align 8 dereferenceable(8) %2) unnamed_addr #1 comdat align 2 {
  %4 = alloca ptr, align 8
  %5 = alloca i32, align 4
  %6 = alloca ptr, align 8
  store ptr %0, ptr %4, align 8
  store i32 %1, ptr %5, align 4
  store ptr %2, ptr %6, align 8
  %7 = load ptr, ptr %4, align 8
  %8 = getelementptr inbounds nuw %"class.std::error_code", ptr %7, i32 0, i32 0
  %9 = load i32, ptr %5, align 4
  store i32 %9, ptr %8, align 8
  %10 = getelementptr inbounds nuw %"class.std::error_code", ptr %7, i32 0, i32 1
  %11 = load ptr, ptr %6, align 8
  store ptr %11, ptr %10, align 8
  ret void
}

; Function Attrs: mustprogress nounwind uwtable
define linkonce_odr hidden { i32, ptr } @_ZN4llvm15make_error_codeENS_16sampleprof_errorE(i32 noundef %0) #1 comdat {
  %2 = alloca %"class.std::error_code", align 8
  %3 = alloca i32, align 4
  store i32 %0, ptr %3, align 4
  %4 = load i32, ptr %3, align 4
  %5 = call noundef nonnull align 8 dereferenceable(8) ptr @_ZN4llvm19sampleprof_categoryEv()
  call void @_ZNSt10error_codeC2EiRKNSt3_V214error_categoryE(ptr noundef nonnull align 8 dereferenceable(16) %2, i32 noundef %4, ptr noundef nonnull align 8 dereferenceable(8) %5) #2
  %6 = load { i32, ptr }, ptr %2, align 8
  ret { i32, ptr } %6
}

; Function Attrs: mustprogress nounwind uwtable
define linkonce_odr hidden void @_ZNSt10error_codeC2IN4llvm16sampleprof_errorEvEET_(ptr noundef nonnull align 8 dereferenceable(16) %0, i32 noundef %1) unnamed_addr #1 comdat align 2 {
  %3 = alloca ptr, align 8
  %4 = alloca i32, align 4
  %5 = alloca %"class.std::error_code", align 8
  store ptr %0, ptr %3, align 8
  store i32 %1, ptr %4, align 4
  %6 = load ptr, ptr %3, align 8
  %7 = load i32, ptr %4, align 4
  %8 = call { i32, ptr } @_ZN4llvm15make_error_codeENS_16sampleprof_errorE(i32 noundef %7)
  %9 = getelementptr inbounds nuw { i32, ptr }, ptr %5, i32 0, i32 0
  %10 = extractvalue { i32, ptr } %8, 0
  store i32 %10, ptr %9, align 8
  %11 = getelementptr inbounds nuw { i32, ptr }, ptr %5, i32 0, i32 1
  %12 = extractvalue { i32, ptr } %8, 1
  store ptr %12, ptr %11, align 8
  call void @llvm.memcpy.p0.p0.i64(ptr align 8 %6, ptr align 8 %5, i64 16, i1 false)
  ret void
}

; Function Attrs: mustprogress nounwind uwtable
define linkonce_odr hidden noundef zeroext i1 @_ZNKSt10error_codecvbEv(ptr noundef nonnull align 8 dereferenceable(16) %0) #1 comdat align 2 {
  %2 = alloca ptr, align 8
  store ptr %0, ptr %2, align 8
  %3 = load ptr, ptr %2, align 8
  %4 = getelementptr inbounds nuw %"class.std::error_code", ptr %3, i32 0, i32 0
  %5 = load i32, ptr %4, align 8
  %6 = icmp ne i32 %5, 0
  ret i1 %6
}

; Function Attrs: mustprogress nounwind uwtable
define dso_local { i32, ptr } @_ZN4llvm10sampleprof25SampleProfileReaderBinary15readFuncProfileEPKh(ptr noundef nonnull align 8 dereferenceable(296) %0, ptr noundef %1) #1 align 2 {
  %3 = alloca %"class.std::error_code", align 8
  %4 = alloca ptr, align 8
  %5 = alloca ptr, align 8
  store ptr %0, ptr %4, align 8
  store ptr %1, ptr %5, align 8
  %6 = load ptr, ptr %4, align 8
  %7 = load ptr, ptr %5, align 8
  %8 = getelementptr inbounds nuw %"class.llvm::sampleprof::SampleProfileReader", ptr %6, i32 0, i32 1
  %9 = call { i32, ptr } @_ZN4llvm10sampleprof25SampleProfileReaderBinary15readFuncProfileEPKhRNS0_16SampleProfileMapE(ptr noundef nonnull align 8 dereferenceable(296) %6, ptr noundef %7, ptr noundef nonnull align 8 dereferenceable(56) %8)
  %10 = getelementptr inbounds nuw { i32, ptr }, ptr %3, i32 0, i32 0
  %11 = extractvalue { i32, ptr } %9, 0
  store i32 %11, ptr %10, align 8
  %12 = getelementptr inbounds nuw { i32, ptr }, ptr %3, i32 0, i32 1
  %13 = extractvalue { i32, ptr } %9, 1
  store ptr %13, ptr %12, align 8
  %14 = load { i32, ptr }, ptr %3, align 8
  ret { i32, ptr } %14
}

; Function Attrs: mustprogress nounwind uwtable
define dso_local { i32, ptr } @_ZN4llvm10sampleprof32SampleProfileReaderExtBinaryBase16readFuncProfilesEv(ptr noundef nonnull align 8 dereferenceable(496) %0) #1 align 2 {
  %2 = alloca %"class.std::error_code", align 8
  %3 = alloca ptr, align 8
  %4 = alloca i8, align 1
  store ptr %0, ptr %3, align 8
  %5 = load ptr, ptr %3, align 8
  %6 = load ptr, ptr %5, align 8
  %7 = getelementptr inbounds ptr, ptr %6, i64 4
  %8 = load ptr, ptr %7, align 8
  %9 = call noundef zeroext i1 %8(ptr noundef nonnull align 8 dereferenceable(496) %5)
  %10 = zext i1 %9 to i8
  store i8 %10, ptr %4, align 1
  %11 = load i8, ptr %4, align 1
  %12 = trunc i8 %11 to i1
  br i1 %12, label %32, label %13

13:                                               ; preds = %1
  br label %14

14:                                               ; preds = %30, %13
  %15 = getelementptr inbounds nuw %"class.llvm::sampleprof::SampleProfileReaderBinary", ptr %5, i32 0, i32 1
  %16 = load ptr, ptr %15, align 8
  %17 = getelementptr inbounds nuw %"class.llvm::sampleprof::SampleProfileReaderBinary", ptr %5, i32 0, i32 2
  %18 = load ptr, ptr %17, align 8
  %19 = icmp ult ptr %16, %18
  br i1 %19, label %20, label %31

20:                                               ; preds = %14
  %21 = getelementptr inbounds nuw %"class.llvm::sampleprof::SampleProfileReaderBinary", ptr %5, i32 0, i32 1
  %22 = load ptr, ptr %21, align 8
  %23 = call { i32, ptr } @_ZN4llvm10sampleprof25SampleProfileReaderBinary15readFuncProfileEPKh(ptr noundef nonnull align 8 dereferenceable(296) %5, ptr noundef %22)
  %24 = getelementptr inbounds nuw { i32, ptr }, ptr %2, i32 0, i32 0
  %25 = extractvalue { i32, ptr } %23, 0
  store i32 %25, ptr %24, align 8
  %26 = getelementptr inbounds nuw { i32, ptr }, ptr %2, i32 0, i32 1
  %27 = extractvalue { i32, ptr } %23, 1
  store ptr %27, ptr %26, align 8
  %28 = call noundef zeroext i1 @_ZNKSt10error_codecvbEv(ptr noundef nonnull align 8 dereferenceable(16) %2) #2
  br i1 %28, label %29, label %30

29:                                               ; preds = %20
  br label %47

30:                                               ; preds = %20
  br label %14, !llvm.loop !20

31:                                               ; preds = %14
  br label %46

32:                                               ; preds = %1
  %33 = getelementptr inbounds nuw %"class.llvm::sampleprof::SampleProfileReaderExtBinaryBase", ptr %5, i32 0, i32 6
  %34 = getelementptr inbounds nuw %"class.llvm::sampleprof::SampleProfileReader", ptr %5, i32 0, i32 1
  %35 = call { i32, ptr } @_ZN4llvm10sampleprof32SampleProfileReaderExtBinaryBase16readFuncProfilesERKNS_8DenseSetINS_9StringRefENS_12DenseMapInfoIS3_vEEEERNS0_16SampleProfileMapE(ptr noundef nonnull align 8 dereferenceable(496) %5, ptr noundef nonnull align 8 dereferenceable(24) %33, ptr noundef nonnull align 8 dereferenceable(56) %34)
  %36 = getelementptr inbounds nuw { i32, ptr }, ptr %2, i32 0, i32 0
  %37 = extractvalue { i32, ptr } %35, 0
  store i32 %37, ptr %36, align 8
  %38 = getelementptr inbounds nuw { i32, ptr }, ptr %2, i32 0, i32 1
  %39 = extractvalue { i32, ptr } %35, 1
  store ptr %39, ptr %38, align 8
  %40 = call noundef zeroext i1 @_ZNKSt10error_codecvbEv(ptr noundef nonnull align 8 dereferenceable(16) %2) #2
  br i1 %40, label %41, label %42

41:                                               ; preds = %32
  br label %47

42:                                               ; preds = %32
  %43 = getelementptr inbounds nuw %"class.llvm::sampleprof::SampleProfileReaderBinary", ptr %5, i32 0, i32 2
  %44 = load ptr, ptr %43, align 8
  %45 = getelementptr inbounds nuw %"class.llvm::sampleprof::SampleProfileReaderBinary", ptr %5, i32 0, i32 1
  store ptr %44, ptr %45, align 8
  br label %46

46:                                               ; preds = %42, %31
  call void @_ZNSt10error_codeC2IN4llvm16sampleprof_errorEvEET_(ptr noundef nonnull align 8 dereferenceable(16) %2, i32 noundef 0) #2
  br label %47

47:                                               ; preds = %46, %41, %29
  %48 = load { i32, ptr }, ptr %2, align 8
  ret { i32, ptr } %48
}