; Function Attrs: mustprogress nounwind uwtable
define dso_local { i32, ptr } @_ZN4llvm10sampleprof32SampleProfileReaderExtBinaryBase16readFuncProfilesEv(ptr noundef nonnull align 8 dereferenceable(496) %0) local_unnamed_addr #0 align 2 {
  %2 = load ptr, ptr %0, align 8
  %3 = getelementptr inbounds i8, ptr %2, i64 32
  %4 = load ptr, ptr %3, align 8
  %5 = tail call noundef zeroext i1 %4(ptr noundef nonnull align 8 dereferenceable(496) %0) #24
  br i1 %5, label %16, label %.preheader

.preheader:                                       ; preds = %1
  %6 = getelementptr inbounds nuw i8, ptr %0, i64 200
  %7 = getelementptr inbounds nuw i8, ptr %0, i64 208
  %8 = getelementptr inbounds nuw i8, ptr %0, i64 8
  br label %9

9:                                                ; preds = %.preheader, %13
  %10 = load ptr, ptr %6, align 8
  %11 = load ptr, ptr %7, align 8
  %12 = icmp ult ptr %10, %11
  br i1 %12, label %13, label %.loopexit

13:                                               ; preds = %9
  %14 = tail call { i32, ptr } @_ZN4llvm10sampleprof25SampleProfileReaderBinary15readFuncProfileEPKhRNS0_16SampleProfileMapE(ptr noundef nonnull align 8 dereferenceable(296) %0, ptr noundef %10, ptr noundef nonnull align 8 dereferenceable(56) %8)
  %15 = extractvalue { i32, ptr } %14, 0
  %.not = icmp eq i32 %15, 0
  br i1 %.not, label %9, label %.loopexit4, !llvm.loop !97

16:                                               ; preds = %1
  %17 = getelementptr inbounds nuw i8, ptr %0, i64 472
  %18 = getelementptr inbounds nuw i8, ptr %0, i64 8
  %19 = tail call { i32, ptr } @_ZN4llvm10sampleprof32SampleProfileReaderExtBinaryBase16readFuncProfilesERKNS_8DenseSetINS_9StringRefENS_12DenseMapInfoIS3_vEEEERNS0_16SampleProfileMapE(ptr noundef nonnull align 8 dereferenceable(496) %0, ptr noundef nonnull align 8 dereferenceable(24) %17, ptr noundef nonnull align 8 dereferenceable(56) %18)
  %20 = extractvalue { i32, ptr } %19, 0
  %21 = extractvalue { i32, ptr } %19, 1
  %.not3 = icmp eq i32 %20, 0
  br i1 %.not3, label %22, label %28

22:                                               ; preds = %16
  %23 = getelementptr inbounds nuw i8, ptr %0, i64 208
  %24 = load ptr, ptr %23, align 8
  %25 = getelementptr inbounds nuw i8, ptr %0, i64 200
  store ptr %24, ptr %25, align 8
  br label %.loopexit

.loopexit:                                        ; preds = %9, %22
  %26 = tail call noundef nonnull align 8 dereferenceable(8) ptr @_ZN4llvm19sampleprof_categoryEv() #24
  br label %28

.loopexit4:                                       ; preds = %13
  %27 = extractvalue { i32, ptr } %14, 1
  br label %28

28:                                               ; preds = %.loopexit4, %16, %.loopexit
  %.sroa.6.0 = phi ptr [ %21, %16 ], [ %26, %.loopexit ], [ %27, %.loopexit4 ]
  %.sroa.0.0 = phi i32 [ %20, %16 ], [ 0, %.loopexit ], [ %15, %.loopexit4 ]
  %.fca.0.insert = insertvalue { i32, ptr } poison, i32 %.sroa.0.0, 0
  %.fca.1.insert = insertvalue { i32, ptr } %.fca.0.insert, ptr %.sroa.6.0, 1
  ret { i32, ptr } %.fca.1.insert
}